target datalayout = "e-m:e-p270:32:32-p271:32:32-p272:64:64-i64:64-i128:128-f80:128-n8:16:32:64-S128"
target triple = "x86_64-pc-linux-gnu"

%struct._address = type { i32, i32, ptr, ptr }
%struct._packet_info = type { ptr, ptr, i32, i32, %struct.nstime_t, %struct.nstime_t, %struct.nstime_t, i8, ptr, ptr, ptr, ptr, %struct._address, %struct._address, %struct._address, %struct._address, %struct._address, %struct._address, i32, ptr, i8, [3 x i8], %struct.anon, i32, i32, i32, i32, ptr, i8, ptr, ptr, i16, i16, i32, i32, i16, i32, i32, ptr, ptr, ptr, i8, i8, i16, i16, i16, i32, i16, i16, ptr, ptr, ptr, ptr, ptr, i32, i32 }
%struct.nstime_t = type { i64, i32 }
%struct.anon = type { i8, [3 x i8] }
%struct.reassembly_table = type { ptr, ptr, ptr, ptr, ptr }
%struct._reassembled_key = type { i32, i32 }
%struct._frame_data = type <{ i32, i32, i32, i32, i32, [4 x i8], i64, ptr, ptr, ptr, i8, i16, [5 x i8], %struct.nstime_t, %struct.nstime_t, i32, i32 }>

; Function Attrs: null_pointer_is_valid sspstrong uwtable
define internal void @fragment_unhash(ptr noundef %0, ptr noundef %1) #1 {
  %3 = alloca ptr, align 8
  %4 = alloca ptr, align 8
  store ptr %0, ptr %3, align 8
  store ptr %1, ptr %4, align 8
  %5 = load ptr, ptr %3, align 8
  %6 = getelementptr inbounds nuw %struct.reassembly_table, ptr %5, i32 0, i32 0
  %7 = load ptr, ptr %6, align 8
  %8 = load ptr, ptr %4, align 8
  %9 = call i32 @g_hash_table_remove(ptr noundef %7, ptr noundef %8)
  ret void
}

; Function Attrs: null_pointer_is_valid sspstrong uwtable
define internal ptr @fragment_add_seq_check_work(ptr noundef %0, ptr noundef %1, i32 noundef %2, ptr noundef %3, i32 noundef %4, ptr noundef %5, i32 noundef %6, i32 noundef %7, i1 noundef zeroext %8, i32 noundef %9) #1 {
  %11 = alloca ptr, align 8
  %12 = alloca ptr, align 8
  %13 = alloca ptr, align 8
  %14 = alloca i32, align 4
  %15 = alloca ptr, align 8
  %16 = alloca i32, align 4
  %17 = alloca ptr, align 8
  %18 = alloca i32, align 4
  %19 = alloca i32, align 4
  %20 = alloca i8, align 1
  %21 = alloca i32, align 4
  %22 = alloca %struct._reassembled_key, align 4
  %23 = alloca ptr, align 8
  %24 = alloca ptr, align 8
  %25 = alloca i32, align 4
  store ptr %0, ptr %12, align 8
  store ptr %1, ptr %13, align 8
  store i32 %2, ptr %14, align 4
  store ptr %3, ptr %15, align 8
  store i32 %4, ptr %16, align 4
  store ptr %5, ptr %17, align 8
  store i32 %6, ptr %18, align 4
  store i32 %7, ptr %19, align 4
  %26 = zext i1 %8 to i8
  store i8 %26, ptr %20, align 1
  store i32 %9, ptr %21, align 4
  call void @llvm.lifetime.start.p0(i64 8, ptr %22) #16
  call void @llvm.lifetime.start.p0(i64 8, ptr %23) #16
  call void @llvm.lifetime.start.p0(i64 8, ptr %24) #16
  %27 = load ptr, ptr %15, align 8
  %28 = getelementptr inbounds nuw %struct._packet_info, ptr %27, i32 0, i32 8
  %29 = load ptr, ptr %28, align 8
  %30 = getelementptr inbounds nuw %struct._frame_data, ptr %29, i32 0, i32 11
  %31 = load i16, ptr %30, align 1
  %32 = lshr i16 %31, 3
  %33 = and i16 %32, 1
  %34 = zext i16 %33 to i32
  %35 = icmp ne i32 %34, 0
  br i1 %35, label %36, label %47

36:                                               ; preds = %10
  %37 = load ptr, ptr %15, align 8
  %38 = getelementptr inbounds nuw %struct._packet_info, ptr %37, i32 0, i32 3
  %39 = load i32, ptr %38, align 4
  %40 = getelementptr inbounds nuw %struct._reassembled_key, ptr %22, i32 0, i32 1
  store i32 %39, ptr %40, align 4
  %41 = load i32, ptr %16, align 4
  %42 = getelementptr inbounds nuw %struct._reassembled_key, ptr %22, i32 0, i32 0
  store i32 %41, ptr %42, align 4
  %43 = load ptr, ptr %12, align 8
  %44 = getelementptr inbounds nuw %struct.reassembly_table, ptr %43, i32 0, i32 1
  %45 = load ptr, ptr %44, align 8
  %46 = call ptr @g_hash_table_lookup(ptr noundef %45, ptr noundef %22)
  store ptr %46, ptr %11, align 8
  store i32 1, ptr %25, align 4
  br label %75

47:                                               ; preds = %10
  %48 = load ptr, ptr %12, align 8
  %49 = load ptr, ptr %13, align 8
  %50 = load i32, ptr %14, align 4
  %51 = load ptr, ptr %15, align 8
  %52 = load i32, ptr %16, align 4
  %53 = load ptr, ptr %17, align 8
  %54 = load i32, ptr %18, align 4
  %55 = load i32, ptr %19, align 4
  %56 = load i8, ptr %20, align 1, !range !13, !noundef !14
  %57 = trunc i8 %56 to i1
  %58 = load i32, ptr %21, align 4
  %59 = call ptr @fragment_add_seq_common(ptr noundef %48, ptr noundef %49, i32 noundef %50, ptr noundef %51, i32 noundef %52, ptr noundef %53, i32 noundef %54, i32 noundef %55, i1 noundef zeroext %57, i32 noundef %58, ptr noundef %24)
  store ptr %59, ptr %23, align 8
  %60 = load ptr, ptr %23, align 8
  %61 = icmp ne ptr %60, null
  br i1 %61, label %62, label %74

62:                                               ; preds = %47
  %63 = load ptr, ptr %24, align 8
  %64 = icmp ne ptr %63, null
  br i1 %64, label %65, label %68

65:                                               ; preds = %62
  %66 = load ptr, ptr %12, align 8
  %67 = load ptr, ptr %24, align 8
  call void @fragment_unhash(ptr noundef %66, ptr noundef %67)
  br label %68

68:                                               ; preds = %65, %62
  %69 = load ptr, ptr %12, align 8
  %70 = load ptr, ptr %23, align 8
  %71 = load ptr, ptr %15, align 8
  %72 = load i32, ptr %16, align 4
  call void @fragment_reassembled(ptr noundef %69, ptr noundef %70, ptr noundef %71, i32 noundef %72)
  %73 = load ptr, ptr %23, align 8
  store ptr %73, ptr %11, align 8
  store i32 1, ptr %25, align 4
  br label %75

74:                                               ; preds = %47
  store ptr null, ptr %11, align 8
  store i32 1, ptr %25, align 4
  br label %75

75:                                               ; preds = %74, %68, %36
  call void @llvm.lifetime.end.p0(i64 8, ptr %24) #16
  call void @llvm.lifetime.end.p0(i64 8, ptr %23) #16
  call void @llvm.lifetime.end.p0(i64 8, ptr %22) #16
  %76 = load ptr, ptr %11, align 8
  ret ptr %76
}

; Function Attrs: null_pointer_is_valid sspstrong uwtable
define ptr @fragment_add_seq_802_11(ptr noundef %0, ptr noundef %1, i32 noundef %2, ptr noundef %3, i32 noundef %4, ptr noundef %5, i32 noundef %6, i32 noundef %7, i1 noundef zeroext %8) #1 {
  %10 = alloca ptr, align 8
  %11 = alloca ptr, align 8
  %12 = alloca i32, align 4
  %13 = alloca ptr, align 8
  %14 = alloca i32, align 4
  %15 = alloca ptr, align 8
  %16 = alloca i32, align 4
  %17 = alloca i32, align 4
  %18 = alloca i8, align 1
  store ptr %0, ptr %10, align 8
  store ptr %1, ptr %11, align 8
  store i32 %2, ptr %12, align 4
  store ptr %3, ptr %13, align 8
  store i32 %4, ptr %14, align 4
  store ptr %5, ptr %15, align 8
  store i32 %6, ptr %16, align 4
  store i32 %7, ptr %17, align 4
  %19 = zext i1 %8 to i8
  store i8 %19, ptr %18, align 1
  %20 = load ptr, ptr %10, align 8
  %21 = load ptr, ptr %11, align 8
  %22 = load i32, ptr %12, align 4
  %23 = load ptr, ptr %13, align 8
  %24 = load i32, ptr %14, align 4
  %25 = load ptr, ptr %15, align 8
  %26 = load i32, ptr %16, align 4
  %27 = load i32, ptr %17, align 4
  %28 = load i8, ptr %18, align 1, !range !13, !noundef !14
  %29 = trunc i8 %28 to i1
  %30 = call ptr @fragment_add_seq_check_work(ptr noundef %20, ptr noundef %21, i32 noundef %22, ptr noundef %23, i32 noundef %24, ptr noundef %25, i32 noundef %26, i32 noundef %27, i1 noundef zeroext %29, i32 noundef 2)
  ret ptr %30
}