; Function Attrs: null_pointer_is_valid sspstrong uwtable
define ptr @fragment_add_seq_802_11(ptr noundef readonly captures(none) %0, ptr noundef %1, i32 noundef %2, ptr noundef %3, i32 noundef %4, ptr noundef %5, i32 noundef %6, i32 noundef %7, i1 noundef zeroext %8) local_unnamed_addr #2 {
  %10 = alloca %struct._reassembled_key, align 4
  %11 = alloca ptr, align 8
  call void @llvm.lifetime.start.p0(i64 8, ptr nonnull %10) #18
  call void @llvm.lifetime.start.p0(i64 8, ptr nonnull %11) #18
  %12 = getelementptr inbounds nuw i8, ptr %3, i64 80
  %13 = load ptr, ptr %12, align 8
  %14 = getelementptr inbounds nuw i8, ptr %13, i64 57
  %15 = load i16, ptr %14, align 1
  %16 = and i16 %15, 8
  %.not.i = icmp eq i16 %16, 0
  br i1 %.not.i, label %24, label %17

17:                                               ; preds = %9
  %18 = getelementptr inbounds nuw i8, ptr %3, i64 20
  %19 = load i32, ptr %18, align 4
  %20 = getelementptr inbounds nuw i8, ptr %10, i64 4
  store i32 %19, ptr %20, align 4
  store i32 %4, ptr %10, align 4
  %21 = getelementptr inbounds nuw i8, ptr %0, i64 8
  %22 = load ptr, ptr %21, align 8
  %23 = call ptr @g_hash_table_lookup(ptr noundef %22, ptr noundef nonnull %10)
  br label %fragment_add_seq_check_work.exit

24:                                               ; preds = %9
  %25 = call fastcc ptr @fragment_add_seq_common(ptr noundef readonly %0, ptr noundef %1, i32 noundef %2, ptr noundef %3, i32 noundef %4, ptr noundef %5, i32 noundef %6, i32 noundef %7, i1 noundef zeroext %8, i32 noundef 2, ptr noundef nonnull %11)
  %.not23.i = icmp eq ptr %25, null
  br i1 %.not23.i, label %fragment_add_seq_check_work.exit, label %26

26:                                               ; preds = %24
  %27 = load ptr, ptr %11, align 8
  %.not24.i = icmp eq ptr %27, null
  br i1 %.not24.i, label %30, label %28

28:                                               ; preds = %26
  %.val.i = load ptr, ptr %0, align 8
  %29 = call i32 @g_hash_table_remove(ptr noundef %.val.i, ptr noundef nonnull %27)
  br label %30

30:                                               ; preds = %28, %26
  call fastcc void @fragment_reassembled(ptr noundef readonly %0, ptr noundef nonnull %25, ptr noundef %3, i32 noundef %4)
  br label %fragment_add_seq_check_work.exit

fragment_add_seq_check_work.exit:                 ; preds = %17, %24, %30
  %.0.i = phi ptr [ %23, %17 ], [ %25, %30 ], [ null, %24 ]
  call void @llvm.lifetime.end.p0(i64 8, ptr nonnull %11) #18
  call void @llvm.lifetime.end.p0(i64 8, ptr nonnull %10) #18
  ret ptr %.0.i
}